Certificate:
    Data:
        Version: 3 (0x2)
        Serial Number: 1 (0x1)
        Signature Algorithm: sha256WithRSAEncryption
        Issuer: C=AU, ST=Some-State, O=Internet Widgits Pty Ltd, CN=AEL
        Validity
            Not Before: Aug 28 13:20:28 2020 GMT
            Not After : Aug 28 13:20:28 2021 GMT
        Subject: C=AU, ST=Some-State, O=Internet Widgits Pty Ltd, CN=AEL
        Subject Public Key Info:
            Public Key Algorithm: rsaEncryption
                RSA Public-Key: (3072 bit)
                Modulus:
                    00:b7:1b:b5:54:5c:15:88:46:84:4f:9f:d9:08:d2:
                    cd:9a:11:c4:80:b8:06:d4:be:09:6a:83:ab:7d:d0:
                    ce:27:07:c5:f0:8f:81:8a:42:a4:0a:88:44:ae:35:
                    28:43:6f:ee:9b:46:6f:b2:9a:01:a7:12:2e:3b:b3:
                    5e:be:09:db:02:27:85:1a:60:bb:ed:d2:f5:dc:28:
                    33:a4:2e:57:6a:81:51:04:e3:65:8e:01:6e:ca:ae:
                    48:1b:18:e7:c2:c7:eb:35:cc:a0:89:50:07:fb:f3:
                    02:38:a4:53:b8:5f:1b:68:df:1e:44:92:1d:02:45:
                    7e:1c:09:d9:4c:18:5f:d7:7e:2f:5a:a2:bf:85:8e:
                    1c:5d:cd:84:ad:ac:4a:6d:07:ce:96:78:81:cd:5b:
                    33:81:69:26:35:12:38:a9:a1:f8:bd:2e:f7:49:f7:
                    9d:e6:cf:3a:b6:87:36:fb:a4:28:3b:66:3c:a5:7d:
                    a2:aa:50:fc:9a:31:73:df:80:66:3d:a9:bd:95:d7:
                    31:0b:c9:00:e9:23:10:03:c6:3a:76:27:ed:ca:6c:
                    01:f0:9f:cf:b0:16:a4:4b:f6:9f:16:5c:e5:0e:f2:
                    e5:1f:4b:94:b1:4e:2d:1a:48:50:52:a6:4a:8d:ae:
                    6e:8a:26:33:30:9a:7a:de:74:67:cd:ec:26:1f:7a:
                    2a:c1:86:ec:96:2b:48:4d:9f:8e:0b:c6:4c:19:0c:
                    92:d2:3a:cc:2f:79:39:d9:d1:c8:f8:b4:2a:3e:bc:
                    93:84:79:38:36:0d:3c:96:1d:5d:74:e8:fa:76:58:
                    c8:e9:62:1a:a8:bf:de:58:a6:64:3d:2d:d3:ce:c5:
                    1e:bc:c9:0d:c4:0b:17:ec:30:d2:ef:71:46:47:55:
                    4d:d4:c2:28:2b:9d:bb:e3:89:93:6c:d2:4d:17:df:
                    29:6c:c2:64:f7:ee:ba:f7:bd:63:f6:ce:f9:4f:87:
                    54:9b:5f:98:1a:a5:60:81:8d:1a:ac:90:f9:b2:c9:
                    61:d3:5a:f8:77:2a:02:b6:e2:65
                Exponent: 65537 (0x10001)
        X509v3 extensions:
            X509v3 Basic Constraints: 
                CA:FALSE
            Netscape Comment: 
                OpenSSL Generated Certificate
            X509v3 Subject Key Identifier: 
                F2:61:7D:91:71:72:3C:A8:1D:39:E2:93:F6:B7:F4:FF:B5:5E:B4:A5
            X509v3 Authority Key Identifier: 
                keyid:8F:F6:97:79:50:D2:78:95:26:63:1D:B3:76:99:77:ED:B4:B4:F8:24

    Signature Algorithm: sha256WithRSAEncryption
         1f:f4:0c:e2:91:bf:4f:92:33:a3:39:29:99:6a:2d:30:d7:82:
         36:03:ce:80:ef:65:a2:8f:5f:b9:65:71:f9:d6:17:e8:7b:a0:
         85:c5:fd:ab:5f:c3:59:a6:4f:6d:bd:6c:e1:3b:09:e6:3b:f3:
         36:bd:a0:8b:f9:c9:77:84:d8:27:92:bb:49:56:dc:ab:9a:f5:
         1e:ed:83:54:5d:03:2f:dc:d1:a2:12:87:b1:c5:7f:60:e5:3c:
         10:32:4d:9a:e4:e9:11:c8:0f:87:30:d2:10:9e:ee:c7:7c:06:
         2b:eb:15:c9:73:81:d6:d4:37:b9:de:8f:be:07:4a:b0:f4:cb:
         39:29:53:88:26:a7:1a:5a:b6:7d:9a:54:ef:1f:40:27:95:98:
         82:df:fa:6b:70:50:42:a8:0c:6e:41:7a:2b:a0:b3:05:22:3b:
         24:02:75:86:65:03:90:95:6b:bf:7d:ad:d4:95:bc:19:ab:e0:
         a6:e0:58:11:d2:b5:b8:73:a8:6a:2c:63:c5:23:8c:3d:5a:df:
         72:7e:e5:e4:ec:2b:2a:7b:90:6c:f8:64:61:f3:a9:f4:11:a1:
         ea:11:a4:68:84:db:1d:05:02:ca:f4:16:c5:87:e8:07:86:a0:
         9b:63:d6:4f:f3:e1:68:f3:a2:a9:da:2e:ed:b7:ca:b9:73:28:
         ff:58:a1:8d:50:49:33:96:02:73:91:52:cf:21:89:72:f1:1e:
         4a:a4:c5:98:6b:32:02:fe:b3:28:e2:5c:d8:32:31:fb:1d:e0:
         75:94:25:97:42:d5:38:6c:d0:94:f1:79:e7:bd:3e:d8:c6:eb:
         01:48:5e:d6:43:18:6b:08:c2:66:17:c1:e3:b7:55:47:fe:59:
         f4:e0:b1:12:3d:05:46:1a:82:c8:5c:e0:cd:e3:d4:22:1d:d3:
         33:51:55:c7:c7:e0:fa:8f:ab:28:34:00:cf:8c:14:ca:e5:be:
         5d:5c:21:01:a1:7f:9e:98:d5:5f:48:c9:15:86:41:e1:83:cb:
         29:1d:3d:32:8d:7d
-----BEGIN CERTIFICATE-----
MIIEnDCCAwSgAwIBAgIBATANBgkqhkiG9w0BAQsFADBTMQswCQYDVQQGEwJBVTET
MBEGA1UECAwKU29tZS1TdGF0ZTEhMB8GA1UECgwYSW50ZXJuZXQgV2lkZ2l0cyBQ
dHkgTHRkMQwwCgYDVQQDDANBRUwwHhcNMjAwODI4MTMyMDI4WhcNMjEwODI4MTMy
MDI4WjBTMQswCQYDVQQGEwJBVTETMBEGA1UECAwKU29tZS1TdGF0ZTEhMB8GA1UE
CgwYSW50ZXJuZXQgV2lkZ2l0cyBQdHkgTHRkMQwwCgYDVQQDDANBRUwwggGiMA0G
CSqGSIb3DQEBAQUAA4IBjwAwggGKAoIBgQC3G7VUXBWIRoRPn9kI0s2aEcSAuAbU
vglqg6t90M4nB8Xwj4GKQqQKiESuNShDb+6bRm+ymgGnEi47s16+CdsCJ4UaYLvt
0vXcKDOkLldqgVEE42WOAW7KrkgbGOfCx+s1zKCJUAf78wI4pFO4Xxto3x5Ekh0C
RX4cCdlMGF/Xfi9aor+FjhxdzYStrEptB86WeIHNWzOBaSY1Ejipofi9LvdJ953m
zzq2hzb7pCg7ZjylfaKqUPyaMXPfgGY9qb2V1zELyQDpIxADxjp2J+3KbAHwn8+w
FqRL9p8WXOUO8uUfS5SxTi0aSFBSpkqNrm6KJjMwmnredGfN7CYfeirBhuyWK0hN
n44LxkwZDJLSOswveTnZ0cj4tCo+vJOEeTg2DTyWHV106Pp2WMjpYhqov95YpmQ9
LdPOxR68yQ3ECxfsMNLvcUZHVU3UwigrnbvjiZNs0k0X3ylswmT37rr3vWP2zvlP
h1SbX5gapWCBjRqskPmyyWHTWvh3KgK24mUCAwEAAaN7MHkwCQYDVR0TBAIwADAs
BglghkgBhvhCAQ0EHxYdT3BlblNTTCBHZW5lcmF0ZWQgQ2VydGlmaWNhdGUwHQYD
VR0OBBYEFPJhfZFxcjyoHTnik/a39P+1XrSlMB8GA1UdIwQYMBaAFI/2l3lQ0niV
JmMds3aZd+20tPgkMA0GCSqGSIb3DQEBCwUAA4IBgQAf9Azikb9PkjOjOSmZai0w
14I2A86A72Wij1+5ZXH51hfoe6CFxf2rX8NZpk9tvWzhOwnmO/M2vaCL+cl3hNgn
krtJVtyrmvUe7YNUXQMv3NGiEoexxX9g5TwQMk2a5OkRyA+HMNIQnu7HfAYr6xXJ
c4HW1De53o++B0qw9Ms5KVOIJqcaWrZ9mlTvH0AnlZiC3/prcFBCqAxuQXoroLMF
IjskAnWGZQOQlWu/fa3UlbwZq+Cm4FgR0rW4c6hqLGPFI4w9Wt9yfuXk7Csqe5Bs
+GRh86n0EaHqEaRohNsdBQLK9BbFh+gHhqCbY9ZP8+Fo86Kp2i7tt8q5cyj/WKGN
UEkzlgJzkVLPIYly8R5KpMWYazIC/rMo4lzYMjH7HeB1lCWXQtU4bNCU8XnnvT7Y
xusBSF7WQxhrCMJmF8Hjt1VH/ln04LESPQVGGoLIXODN49QiHdMzUVXHx+D6j6so
NADPjBTK5b5dXCEBoX+emNVfSMkVhkHhg8spHT0yjX0=
-----END CERTIFICATE-----
