Certificate:
    Data:
        Version: 3 (0x2)
        Serial Number: 2 (0x2)
        Signature Algorithm: sha256WithRSAEncryption
        Issuer: C=AU, ST=Some-State, O=Internet Widgits Pty Ltd, CN=AEL
        Validity
            Not Before: Aug 29 08:59:27 2020 GMT
            Not After : Aug 29 08:59:27 2021 GMT
        Subject: C=AU, ST=Some-State, O=Internet Widgits Pty Ltd, CN=Alice
        Subject Public Key Info:
            Public Key Algorithm: rsaEncryption
                RSA Public-Key: (3072 bit)
                Modulus:
                    00:c4:ac:ca:b9:bc:e0:a5:22:a1:15:ce:8e:7c:41:
                    c9:40:1d:f2:47:b3:c9:1a:3f:03:30:39:4a:76:04:
                    cf:43:9e:ea:2e:2c:3d:4a:4c:ad:96:2b:4f:18:31:
                    86:c7:4c:86:3f:c1:49:e2:9b:7b:c3:ed:54:1c:6c:
                    06:63:59:43:f8:41:17:db:64:f2:da:83:a1:6b:20:
                    c5:cc:9f:fc:fb:a2:91:82:8a:4e:9c:b0:c1:96:52:
                    fe:27:53:05:bb:b5:af:a3:0b:32:a7:e0:25:ae:6c:
                    c6:52:f8:11:44:1e:4d:ef:99:3a:93:a3:0a:83:6e:
                    f1:20:a5:94:9c:72:82:7a:d5:c9:a4:59:0d:3a:c9:
                    6e:1c:8c:56:75:15:ae:11:54:78:5f:e2:e5:9e:de:
                    9f:75:23:d2:89:2d:56:09:25:22:f9:ad:4c:11:42:
                    cd:dc:21:3c:57:bb:1c:45:bc:94:0d:ad:9d:96:54:
                    5d:ed:ff:c3:06:6d:9e:ec:9d:8b:b8:e0:f5:fd:cf:
                    b6:fb:28:99:7b:f0:a3:b7:b4:cf:35:77:40:94:d2:
                    d5:3f:d0:0f:3e:fb:79:65:c4:f1:89:bc:a3:e5:d4:
                    97:bb:c8:65:e7:ff:8c:3d:1a:e4:a3:3e:33:ee:fb:
                    12:4e:3c:40:d2:83:91:18:8b:1b:1f:bb:db:c2:fd:
                    4d:ef:84:c7:3d:93:c7:21:52:3e:02:ea:a2:f8:c2:
                    08:60:0e:ab:8b:8e:84:ba:1a:a8:42:83:e4:cc:fa:
                    ca:f9:94:3e:73:bc:e0:3a:40:b4:90:23:19:84:4e:
                    3e:cd:5d:b3:6f:c5:42:6b:a7:3b:69:77:8b:a2:71:
                    a1:2e:0f:ec:c0:c7:0a:d7:f9:30:bc:27:2e:27:1e:
                    e2:60:55:ef:25:00:7d:33:01:d8:1f:da:8f:7f:0e:
                    75:0e:0b:00:36:a2:50:e2:b9:c7:66:af:d4:71:4a:
                    a5:68:fa:fb:1a:d0:e0:9c:6a:f9:cf:59:8e:a0:23:
                    dc:3a:fd:8c:b8:6e:7f:ff:b6:11
                Exponent: 65537 (0x10001)
        X509v3 extensions:
            X509v3 Basic Constraints: 
                CA:FALSE
            Netscape Comment: 
                OpenSSL Generated Certificate
            X509v3 Subject Key Identifier: 
                17:71:33:D2:62:40:86:0D:22:08:06:52:CC:7E:CE:F1:04:29:EB:FA
            X509v3 Authority Key Identifier: 
                keyid:8F:F6:97:79:50:D2:78:95:26:63:1D:B3:76:99:77:ED:B4:B4:F8:24

    Signature Algorithm: sha256WithRSAEncryption
         bf:3b:24:9e:29:94:4d:e2:b6:37:74:38:0d:91:17:17:fc:9c:
         36:60:2d:16:44:ca:42:7e:b4:43:9f:20:aa:59:8a:3a:e4:6e:
         eb:70:31:6b:ce:43:8b:3c:61:02:8e:70:a5:3e:5b:95:f3:29:
         a7:c1:87:4d:ab:0f:05:2e:f5:6e:c2:fd:3e:90:36:ce:85:de:
         2b:84:c7:4a:03:3b:16:53:b9:94:72:b9:a8:12:b0:f6:ff:72:
         1e:99:ea:12:79:5f:58:5b:9b:b4:a3:61:01:8e:48:46:b4:cf:
         ea:25:f9:21:c5:57:eb:79:bd:06:ce:3e:86:be:e2:33:30:38:
         f6:4a:0a:fb:8e:8f:0c:ec:8f:d5:6f:d3:87:58:7a:da:30:0e:
         10:08:75:99:e1:06:bf:6b:37:fa:ba:ae:bc:2e:77:c7:1a:8f:
         1e:5d:6b:00:60:65:89:6a:10:44:14:2d:d4:db:ed:c8:75:98:
         d9:35:f9:6b:84:f8:02:5c:18:d5:25:60:e4:b6:2e:c2:80:ef:
         20:74:96:11:dd:60:c7:61:9b:7a:85:50:b3:6c:2c:8f:34:53:
         27:37:8e:db:8d:ce:b1:03:92:58:1d:1d:60:61:40:be:c7:22:
         92:06:e2:b0:81:49:ad:69:12:e8:c5:ab:1b:27:40:84:6f:be:
         21:90:a8:91:a3:e5:0e:b7:b2:33:e6:a0:3c:15:29:31:ad:0c:
         6e:04:0b:82:73:c3:ce:ae:19:51:72:a8:8e:b2:25:05:aa:a0:
         ac:34:0b:0b:08:43:cc:23:37:b6:50:18:4e:86:86:32:58:b3:
         89:b4:3f:c4:c9:e8:ff:01:c5:4e:e2:3d:57:03:5d:1c:a7:1f:
         09:ec:cd:bb:78:95:2b:a8:25:3f:fc:61:03:7b:cf:c6:01:d2:
         23:e3:d4:01:61:82:58:7f:82:c7:fc:23:f1:09:9c:4a:fd:55:
         36:2a:96:28:a6:29:48:d3:d8:e0:d7:73:90:ec:d4:09:2c:7d:
         b2:0e:a8:8b:eb:ef
-----BEGIN CERTIFICATE-----
MIIEnjCCAwagAwIBAgIBAjANBgkqhkiG9w0BAQsFADBTMQswCQYDVQQGEwJBVTET
MBEGA1UECAwKU29tZS1TdGF0ZTEhMB8GA1UECgwYSW50ZXJuZXQgV2lkZ2l0cyBQ
dHkgTHRkMQwwCgYDVQQDDANBRUwwHhcNMjAwODI5MDg1OTI3WhcNMjEwODI5MDg1
OTI3WjBVMQswCQYDVQQGEwJBVTETMBEGA1UECAwKU29tZS1TdGF0ZTEhMB8GA1UE
CgwYSW50ZXJuZXQgV2lkZ2l0cyBQdHkgTHRkMQ4wDAYDVQQDDAVBbGljZTCCAaIw
DQYJKoZIhvcNAQEBBQADggGPADCCAYoCggGBAMSsyrm84KUioRXOjnxByUAd8kez
yRo/AzA5SnYEz0Oe6i4sPUpMrZYrTxgxhsdMhj/BSeKbe8PtVBxsBmNZQ/hBF9tk
8tqDoWsgxcyf/PuikYKKTpywwZZS/idTBbu1r6MLMqfgJa5sxlL4EUQeTe+ZOpOj
CoNu8SCllJxygnrVyaRZDTrJbhyMVnUVrhFUeF/i5Z7en3Uj0oktVgklIvmtTBFC
zdwhPFe7HEW8lA2tnZZUXe3/wwZtnuydi7jg9f3PtvsomXvwo7e0zzV3QJTS1T/Q
Dz77eWXE8Ym8o+XUl7vIZef/jD0a5KM+M+77Ek48QNKDkRiLGx+728L9Te+Exz2T
xyFSPgLqovjCCGAOq4uOhLoaqEKD5Mz6yvmUPnO84DpAtJAjGYROPs1ds2/FQmun
O2l3i6JxoS4P7MDHCtf5MLwnLice4mBV7yUAfTMB2B/aj38OdQ4LADaiUOK5x2av
1HFKpWj6+xrQ4Jxq+c9ZjqAj3Dr9jLhuf/+2EQIDAQABo3sweTAJBgNVHRMEAjAA
MCwGCWCGSAGG+EIBDQQfFh1PcGVuU1NMIEdlbmVyYXRlZCBDZXJ0aWZpY2F0ZTAd
BgNVHQ4EFgQUF3Ez0mJAhg0iCAZSzH7O8QQp6/owHwYDVR0jBBgwFoAUj/aXeVDS
eJUmYx2zdpl37bS0+CQwDQYJKoZIhvcNAQELBQADggGBAL87JJ4plE3itjd0OA2R
Fxf8nDZgLRZEykJ+tEOfIKpZijrkbutwMWvOQ4s8YQKOcKU+W5XzKafBh02rDwUu
9W7C/T6QNs6F3iuEx0oDOxZTuZRyuagSsPb/ch6Z6hJ5X1hbm7SjYQGOSEa0z+ol
+SHFV+t5vQbOPoa+4jMwOPZKCvuOjwzsj9Vv04dYetowDhAIdZnhBr9rN/q6rrwu
d8cajx5dawBgZYlqEEQULdTb7ch1mNk1+WuE+AJcGNUlYOS2LsKA7yB0lhHdYMdh
m3qFULNsLI80Uyc3jtuNzrEDklgdHWBhQL7HIpIG4rCBSa1pEujFqxsnQIRvviGQ
qJGj5Q63sjPmoDwVKTGtDG4EC4Jzw86uGVFyqI6yJQWqoKw0CwsIQ8wjN7ZQGE6G
hjJYs4m0P8TJ6P8BxU7iPVcDXRynHwnszbt4lSuoJT/8YQN7z8YB0iPj1AFhglh/
gsf8I/EJnEr9VTYqliimKUjT2ODXc5Ds1AksfbIOqIvr7w==
-----END CERTIFICATE-----
