Certificate:
    Data:
        Version: 3 (0x2)
        Serial Number: 3 (0x3)
        Signature Algorithm: sha256WithRSAEncryption
        Issuer: C=AU, ST=Some-State, O=Internet Widgits Pty Ltd, CN=AEL
        Validity
            Not Before: Sep  1 20:11:48 2020 GMT
            Not After : Sep  1 20:11:48 2021 GMT
        Subject: C=AU, ST=Some-State, O=Internet Widgits Pty Ltd, CN=Server
        Subject Public Key Info:
            Public Key Algorithm: rsaEncryption
                RSA Public-Key: (3072 bit)
                Modulus:
                    00:94:3e:9f:45:c6:e5:dc:16:d0:61:23:bb:88:5a:
                    a0:db:98:bf:a0:71:ec:b2:4b:51:a6:5b:70:cb:8e:
                    ff:b1:1c:89:30:ef:e0:0d:61:f2:a3:06:79:b8:13:
                    73:34:09:b0:7b:f5:45:19:f4:f2:ad:f6:ed:cb:58:
                    c1:58:01:8c:94:0b:05:c4:67:52:16:7e:d4:a3:ce:
                    b3:14:b3:19:c9:9a:ba:d1:c4:37:7b:4a:93:60:a6:
                    e5:79:35:81:e2:69:b4:6c:8b:18:e9:40:eb:42:da:
                    d6:a9:5f:9e:c8:3f:fb:51:dd:96:4c:aa:53:80:36:
                    dd:e9:b6:ec:aa:97:b8:ca:13:19:b6:18:5f:a0:b4:
                    5d:bb:64:ae:2a:92:65:c9:df:33:7a:53:e5:a8:2e:
                    ed:4b:4f:a9:18:9c:e5:a3:d6:e9:0b:86:37:91:37:
                    bb:2a:57:0f:7d:e2:3a:f3:6c:9e:78:af:b9:a6:6b:
                    bf:61:aa:c2:47:ef:6e:26:b4:c1:cc:56:a2:08:a4:
                    c2:80:f1:f1:01:94:03:0e:67:64:e1:c0:b6:9f:ed:
                    4c:c9:dc:40:ab:08:db:e2:f7:c7:f9:0f:7f:09:18:
                    81:d9:6d:b5:55:95:1e:05:24:ab:de:ff:f5:cf:fa:
                    8a:d4:5e:7d:23:1c:a3:ea:33:ef:05:0b:54:dd:3d:
                    ee:79:a5:98:19:cf:c5:e9:c7:f0:b6:d5:e4:3b:96:
                    df:8e:36:c1:13:14:ea:2b:a5:96:e4:4f:19:91:9b:
                    2e:e3:68:9d:b4:7a:84:b9:b1:c2:8c:b0:bd:e1:ac:
                    c1:c0:73:c1:0b:8f:22:1b:30:bf:80:79:ad:43:d2:
                    87:83:c0:08:89:f7:b3:ac:73:3b:28:3c:a4:b6:ef:
                    54:04:a5:6a:3a:16:92:87:0e:21:2b:20:93:17:2d:
                    e1:dd:c8:5a:36:82:55:73:41:35:c7:6f:bc:d5:95:
                    ce:e3:9f:84:5e:d8:00:6c:5c:60:8c:75:eb:f3:97:
                    4b:9a:b6:78:6a:4d:a5:31:cc:fd
                Exponent: 65537 (0x10001)
        X509v3 extensions:
            X509v3 Basic Constraints: 
                CA:FALSE
            Netscape Comment: 
                OpenSSL Generated Certificate
            X509v3 Subject Key Identifier: 
                97:98:5C:54:17:73:D3:21:94:A6:84:D9:F5:08:06:60:BF:97:8D:08
            X509v3 Authority Key Identifier: 
                keyid:8F:F6:97:79:50:D2:78:95:26:63:1D:B3:76:99:77:ED:B4:B4:F8:24

    Signature Algorithm: sha256WithRSAEncryption
         49:55:84:95:27:be:0a:f9:6a:be:4f:d6:17:36:86:73:ff:bd:
         e0:53:c9:b0:16:9d:47:9f:cf:7a:b4:f1:60:85:97:78:54:88:
         96:ab:7b:5f:23:c3:f4:22:85:5b:59:d2:1b:80:b3:bc:16:d6:
         d4:d5:58:fd:95:86:2c:c9:a0:ee:31:3a:47:b6:14:d0:d3:2e:
         9a:dd:b4:25:54:5b:77:f7:3f:0a:07:e3:02:df:d4:37:fb:87:
         14:27:54:20:3a:09:39:c5:38:2c:47:07:97:0c:bf:13:0c:de:
         b0:68:16:6c:4a:7c:59:e7:cb:22:10:e6:52:35:b2:00:8a:ad:
         9c:ba:72:9d:a4:fc:eb:07:c8:a8:2e:40:50:e4:f5:de:4e:4e:
         4c:df:70:f8:b6:ba:06:3b:4a:44:ea:14:cb:5e:ba:4f:5b:06:
         19:6f:a6:ac:2c:76:d6:cf:d4:d3:1d:9c:17:86:ad:fc:d8:49:
         be:6a:5f:3c:44:09:50:61:22:56:9c:f4:96:a7:cc:ab:61:15:
         4f:c1:8e:61:1b:e7:88:53:86:d6:5a:37:1a:60:d5:75:79:57:
         8e:0d:d0:e8:df:7b:a9:9a:93:33:bb:fa:b3:1f:87:6f:1d:3e:
         ec:10:fd:9f:5c:b2:bf:79:a8:9e:55:bd:cc:59:4f:fb:7c:d6:
         7f:fc:dc:6f:46:ec:6a:8c:3c:a9:0f:0f:ed:e6:c8:34:df:d8:
         2d:bb:24:ee:5c:72:1a:51:58:59:a7:28:16:31:b5:8c:18:53:
         1e:3d:0c:74:fd:d4:c7:b4:eb:b5:9f:f1:2c:73:b5:0a:48:a5:
         d6:8c:a1:e6:6c:da:53:34:de:b1:2b:a5:68:d4:9e:4f:80:d4:
         da:62:fb:2d:5b:65:88:21:b6:74:dd:e7:45:d9:0c:94:52:f3:
         5c:a1:92:71:e7:3f:1a:ae:ce:93:29:d7:7e:3d:9c:50:34:1d:
         89:bd:40:a6:73:f8:66:af:70:ca:ae:c8:c6:a7:0f:fb:d4:6b:
         15:7a:42:a6:21:72
-----BEGIN CERTIFICATE-----
MIIEnzCCAwegAwIBAgIBAzANBgkqhkiG9w0BAQsFADBTMQswCQYDVQQGEwJBVTET
MBEGA1UECAwKU29tZS1TdGF0ZTEhMB8GA1UECgwYSW50ZXJuZXQgV2lkZ2l0cyBQ
dHkgTHRkMQwwCgYDVQQDDANBRUwwHhcNMjAwOTAxMjAxMTQ4WhcNMjEwOTAxMjAx
MTQ4WjBWMQswCQYDVQQGEwJBVTETMBEGA1UECAwKU29tZS1TdGF0ZTEhMB8GA1UE
CgwYSW50ZXJuZXQgV2lkZ2l0cyBQdHkgTHRkMQ8wDQYDVQQDDAZTZXJ2ZXIwggGi
MA0GCSqGSIb3DQEBAQUAA4IBjwAwggGKAoIBgQCUPp9FxuXcFtBhI7uIWqDbmL+g
ceyyS1GmW3DLjv+xHIkw7+ANYfKjBnm4E3M0CbB79UUZ9PKt9u3LWMFYAYyUCwXE
Z1IWftSjzrMUsxnJmrrRxDd7SpNgpuV5NYHiabRsixjpQOtC2tapX57IP/tR3ZZM
qlOANt3ptuyql7jKExm2GF+gtF27ZK4qkmXJ3zN6U+WoLu1LT6kYnOWj1ukLhjeR
N7sqVw994jrzbJ54r7mma79hqsJH724mtMHMVqIIpMKA8fEBlAMOZ2ThwLaf7UzJ
3ECrCNvi98f5D38JGIHZbbVVlR4FJKve//XP+orUXn0jHKPqM+8FC1TdPe55pZgZ
z8Xpx/C21eQ7lt+ONsETFOorpZbkTxmRmy7jaJ20eoS5scKMsL3hrMHAc8ELjyIb
ML+Aea1D0oeDwAiJ97OsczsoPKS271QEpWo6FpKHDiErIJMXLeHdyFo2glVzQTXH
b7zVlc7jn4Re2ABsXGCMdevzl0uatnhqTaUxzP0CAwEAAaN7MHkwCQYDVR0TBAIw
ADAsBglghkgBhvhCAQ0EHxYdT3BlblNTTCBHZW5lcmF0ZWQgQ2VydGlmaWNhdGUw
HQYDVR0OBBYEFJeYXFQXc9MhlKaE2fUIBmC/l40IMB8GA1UdIwQYMBaAFI/2l3lQ
0niVJmMds3aZd+20tPgkMA0GCSqGSIb3DQEBCwUAA4IBgQBJVYSVJ74K+Wq+T9YX
NoZz/73gU8mwFp1Hn896tPFghZd4VIiWq3tfI8P0IoVbWdIbgLO8FtbU1Vj9lYYs
yaDuMTpHthTQ0y6a3bQlVFt39z8KB+MC39Q3+4cUJ1QgOgk5xTgsRweXDL8TDN6w
aBZsSnxZ58siEOZSNbIAiq2cunKdpPzrB8ioLkBQ5PXeTk5M33D4troGO0pE6hTL
XrpPWwYZb6asLHbWz9TTHZwXhq382Em+al88RAlQYSJWnPSWp8yrYRVPwY5hG+eI
U4bWWjcaYNV1eVeODdDo33upmpMzu/qzH4dvHT7sEP2fXLK/eaieVb3MWU/7fNZ/
/NxvRuxqjDypDw/t5sg039gtuyTuXHIaUVhZpygWMbWMGFMePQx0/dTHtOu1n/Es
c7UKSKXWjKHmbNpTNN6xK6Vo1J5PgNTaYvstW2WIIbZ03edF2QyUUvNcoZJx5z8a
rs6TKdd+PZxQNB2JvUCmc/hmr3DKrsjGpw/71GsVekKmIXI=
-----END CERTIFICATE-----
